; Function Attrs: mustprogress uwtable
define void @_ZN7mitsuba10FileStream4seekEm(ptr noundef nonnull align 8 dereferenceable(64) %0, i64 noundef %1) unnamed_addr #0 align 2 personality ptr @__gxx_personality_v0 {
  %3 = alloca i64, align 8
  %4 = alloca %"class.std::__1::basic_string", align 8
  %5 = alloca %"class.std::__1::basic_string", align 8
  %6 = alloca ptr, align 8
  store i64 %1, ptr %3, align 8
  %7 = getelementptr inbounds i8, ptr %0, i64 56
  %8 = load ptr, ptr %7, align 8
  %9 = tail call noundef nonnull align 8 dereferenceable(16) ptr @_ZNSt3__113basic_istreamIcNS_11char_traitsIcEEE5seekgENS_4fposI11__mbstate_tEE(ptr noundef nonnull align 8 dereferenceable(16) %8, i64 0, i64 %1)
  %10 = load ptr, ptr %7, align 8
  %11 = load ptr, ptr %10, align 8
  %12 = getelementptr i8, ptr %11, i64 -24
  %13 = load i64, ptr %12, align 8
  %14 = getelementptr inbounds i8, ptr %10, i64 %13
  %15 = getelementptr inbounds i8, ptr %14, i64 32
  %16 = load i32, ptr %15, align 8
  %17 = icmp eq i32 %16, 0
  br i1 %17, label %31, label %18

18:                                               ; preds = %2
  %19 = load ptr, ptr @_ZN7mitsuba10FileStream7m_classE, align 8
  %20 = getelementptr inbounds i8, ptr %0, i64 24
  call void @_ZNK7mitsuba10filesystem4path6stringEv(ptr dead_on_unwind nonnull writable sret(%"class.std::__1::basic_string") align 8 %5, ptr noundef nonnull align 8 dereferenceable(25) %20)
  %21 = tail call ptr @__errno_location() #22
  %22 = load i32, ptr %21, align 4
  %23 = call ptr @strerror(i32 noundef %22) #19
  store ptr %23, ptr %6, align 8
  invoke void @_ZN10tinyformat6formatIJNSt3__112basic_stringIcNS1_11char_traitsIcEENS1_9allocatorIcEEEEmPcEEES7_PKcDpRKT_(ptr dead_on_unwind nonnull writable sret(%"class.std::__1::basic_string") align 8 %4, ptr noundef nonnull @.str.6, ptr noundef nonnull align 8 dereferenceable(24) %5, ptr noundef nonnull align 8 dereferenceable(8) %3, ptr noundef nonnull align 8 dereferenceable(8) %6)
          to label %24 unwind label %26

24:                                               ; preds = %18
  invoke void @_ZN7mitsuba6detail5ThrowENS_8LogLevelEPKNS_5ClassEPKciRKNSt3__112basic_stringIcNS7_11char_traitsIcEENS7_9allocatorIcEEEE(i32 noundef 400, ptr noundef %19, ptr noundef nonnull @.str, i32 noundef 107, ptr noundef nonnull align 8 dereferenceable(24) %4) #21
          to label %25 unwind label %28

25:                                               ; preds = %24
  unreachable

26:                                               ; preds = %18
  %27 = landingpad { ptr, i32 }
          cleanup
  br label %30

28:                                               ; preds = %24
  %29 = landingpad { ptr, i32 }
          cleanup
  call void @_ZNSt3__112basic_stringIcNS_11char_traitsIcEENS_9allocatorIcEEED1Ev(ptr noundef nonnull align 8 dereferenceable(24) %4) #19
  br label %30

30:                                               ; preds = %28, %26
  %.pn = phi { ptr, i32 } [ %29, %28 ], [ %27, %26 ]
  call void @_ZNSt3__112basic_stringIcNS_11char_traitsIcEENS_9allocatorIcEEED1Ev(ptr noundef nonnull align 8 dereferenceable(24) %5) #19
  resume { ptr, i32 } %.pn

31:                                               ; preds = %2
  ret void
}